; Function Attrs: mustprogress uwtable
define internal void @_ZN8facebook5velox6window9prestosql12_GLOBAL__N_116CumeDistFunction5applyERKN5boost13intrusive_ptrINS0_6BufferEEESA_SA_SA_RKNS0_17SelectivityVectorEiRKSt10shared_ptrINS0_10BaseVectorEE(ptr nocapture noundef nonnull align 8 dereferenceable(108) %this, ptr nocapture noundef nonnull readonly align 8 dereferenceable(8) %peerGroupStarts, ptr nocapture noundef nonnull readonly align 8 dereferenceable(8) %peerGroupEnds, ptr nocapture nonnull readnone align 8 %0, ptr nocapture nonnull readnone align 8 %1, ptr nocapture nonnull readnone align 8 %validRows, i32 noundef %resultOffset, ptr nocapture noundef nonnull readonly align 8 dereferenceable(16) %result) unnamed_addr #0 align 2 {
entry:
  %2 = load ptr, ptr %peerGroupStarts, align 8
  %size_.i = getelementptr inbounds i8, ptr %2, i64 24
  %3 = load i64, ptr %size_.i, align 8
  %div8 = lshr i64 %3, 2
  %conv = trunc i64 %div8 to i32
  %4 = load ptr, ptr %result, align 8
  %5 = tail call noundef ptr @__dynamic_cast(ptr nonnull %4, ptr nonnull @_ZTIN8facebook5velox10BaseVectorE, ptr nonnull @_ZTIN8facebook5velox10FlatVectorIdEE, i64 0) #16
  %call6 = tail call noundef ptr @_ZN8facebook5velox10FlatVectorIdE16mutableRawValuesEv(ptr noundef nonnull align 8 dereferenceable(216) %5)
  %6 = load ptr, ptr %peerGroupStarts, align 8
  %data_.i = getelementptr inbounds i8, ptr %6, i64 16
  %7 = load ptr, ptr %data_.i, align 8
  %8 = load ptr, ptr %peerGroupEnds, align 8
  %data_.i9 = getelementptr inbounds i8, ptr %8, i64 16
  %9 = load ptr, ptr %data_.i9, align 8
  %cmp10 = icmp sgt i32 %conv, 0
  br i1 %cmp10, label %for.body.lr.ph, label %for.end

for.body.lr.ph:                                   ; preds = %entry
  %currentPeerGroupStart_ = getelementptr inbounds i8, ptr %this, i64 96
  %runningTotal_ = getelementptr inbounds i8, ptr %this, i64 80
  %numPartitionRows_ = getelementptr inbounds i8, ptr %this, i64 104
  %cumeDist_ = getelementptr inbounds i8, ptr %this, i64 88
  %10 = sext i32 %resultOffset to i64
  %wide.trip.count = and i64 %div8, 2147483647
  %invariant.gep = getelementptr double, ptr %call6, i64 %10
  br label %for.body

for.body:                                         ; preds = %for.body.lr.ph, %if.end
  %indvars.iv = phi i64 [ 0, %for.body.lr.ph ], [ %indvars.iv.next, %if.end ]
  %arrayidx = getelementptr inbounds i32, ptr %7, i64 %indvars.iv
  %11 = load i32, ptr %arrayidx, align 4
  %conv11 = sext i32 %11 to i64
  %12 = load i64, ptr %currentPeerGroupStart_, align 8
  %cmp12.not = icmp eq i64 %12, %conv11
  br i1 %cmp12.not, label %for.body.if.end_crit_edge, label %if.then

for.body.if.end_crit_edge:                        ; preds = %for.body
  %.pre = load double, ptr %cumeDist_, align 8
  br label %if.end

if.then:                                          ; preds = %for.body
  store i64 %conv11, ptr %currentPeerGroupStart_, align 8
  %arrayidx16 = getelementptr inbounds i32, ptr %9, i64 %indvars.iv
  %13 = load i32, ptr %arrayidx16, align 4
  %reass.sub = sub i32 %13, %11
  %add = add i32 %reass.sub, 1
  %conv17 = sext i32 %add to i64
  %14 = load i64, ptr %runningTotal_, align 8
  %add18 = add nsw i64 %14, %conv17
  store i64 %add18, ptr %runningTotal_, align 8
  %conv20 = sitofp i64 %add18 to double
  %15 = load i32, ptr %numPartitionRows_, align 8
  %conv21 = sitofp i32 %15 to double
  %div22 = fdiv double %conv20, %conv21
  store double %div22, ptr %cumeDist_, align 8
  br label %if.end

if.end:                                           ; preds = %for.body.if.end_crit_edge, %if.then
  %16 = phi double [ %.pre, %for.body.if.end_crit_edge ], [ %div22, %if.then ]
  %gep = getelementptr double, ptr %invariant.gep, i64 %indvars.iv
  store double %16, ptr %gep, align 8
  %indvars.iv.next = add nuw nsw i64 %indvars.iv, 1
  %exitcond.not = icmp eq i64 %indvars.iv.next, %wide.trip.count
  br i1 %exitcond.not, label %for.end, label %for.body, !llvm.loop !22

for.end:                                          ; preds = %if.end, %entry
  ret void
}